target datalayout = "e-m:e-p270:32:32-p271:32:32-p272:64:64-i64:64-i128:128-f80:128-n8:16:32:64-S128"
target triple = "x86_64-pc-linux-gnu"

%struct.H5G_loc_fnd_t = type { ptr }

@H5G_init_g = external global i8, align 1
@H5_libterm_g = external global i8, align 1
@.str = private unnamed_addr constant [100 x i8] c"generated/home/dtcxzyw/WorkSpace/Projects/compilers/llvm-opt-benchmark/bench/hdf5/hdf5/src/H5Gloc.c\00", align 1
@H5E_FUNC_g = external global i64, align 8
@H5E_CANTINIT_g = external global i64, align 8
@.str.1 = private unnamed_addr constant [32 x i8] c"interface initialization failed\00", align 1
@H5E_SYM_g = external global i64, align 8
@H5E_BADVALUE_g = external global i64, align 8
@__func__.H5G_loc_find = private unnamed_addr constant [13 x i8] c"H5G_loc_find\00", align 1
@.str.28 = private unnamed_addr constant [20 x i8] c"invalid object name\00", align 1
@H5E_NOTFOUND_g = external global i64, align 8
@.str.29 = private unnamed_addr constant [18 x i8] c"can't find object\00", align 1

; Function Attrs: nounwind uwtable
define i32 @H5G_loc_find(ptr noundef %0, ptr noundef %1, ptr noundef %2) #0 {
  %4 = alloca ptr, align 8
  %5 = alloca ptr, align 8
  %6 = alloca ptr, align 8
  %7 = alloca %struct.H5G_loc_fnd_t, align 8
  %8 = alloca i32, align 4
  %9 = alloca i8, align 1
  store ptr %0, ptr %4, align 8, !tbaa !9
  store ptr %1, ptr %5, align 8, !tbaa !32
  store ptr %2, ptr %6, align 8, !tbaa !9
  call void @llvm.lifetime.start.p0(i64 8, ptr %7) #7
  call void @llvm.lifetime.start.p0(i64 4, ptr %8) #7
  store i32 0, ptr %8, align 4, !tbaa !7
  call void @llvm.lifetime.start.p0(i64 1, ptr %9) #7
  store i8 0, ptr %9, align 1, !tbaa !11
  %10 = load i8, ptr @H5G_init_g, align 1, !tbaa !11, !range !13, !noundef !14
  %11 = trunc i8 %10 to i1
  br i1 %11, label %16, label %12

12:                                               ; preds = %3
  %13 = load i8, ptr @H5_libterm_g, align 1, !tbaa !11, !range !13, !noundef !14
  %14 = trunc i8 %13 to i1
  %15 = xor i1 %14, true
  br label %16

16:                                               ; preds = %12, %3
  %17 = phi i1 [ false, %3 ], [ %15, %12 ]
  %18 = xor i1 %17, true
  %19 = xor i1 %18, true
  %20 = zext i1 %19 to i32
  %21 = sext i32 %20 to i64
  %22 = call i64 @llvm.expect.i64(i64 %21, i64 0)
  %23 = icmp ne i64 %22, 0
  br i1 %23, label %24, label %47

24:                                               ; preds = %16
  store i8 1, ptr @H5G_init_g, align 1, !tbaa !11
  %25 = call i32 @H5G__init_package()
  %26 = icmp slt i32 %25, 0
  br i1 %26, label %27, label %46

27:                                               ; preds = %24
  store i8 0, ptr @H5G_init_g, align 1, !tbaa !11
  br label %28

28:                                               ; preds = %27
  br label %29

29:                                               ; preds = %28
  br label %30

30:                                               ; preds = %29
  %31 = load i64, ptr @H5E_FUNC_g, align 8, !tbaa !15
  %32 = load i64, ptr @H5E_CANTINIT_g, align 8, !tbaa !15
  %33 = call i32 (ptr, ptr, i32, i64, i64, ptr, ...) @H5E_printf_stack(ptr noundef @.str, ptr noundef @__func__.H5G_loc_find, i32 noundef 409, i64 noundef %31, i64 noundef %32, ptr noundef @.str.1)
  br label %34

34:                                               ; preds = %30
  br label %35

35:                                               ; preds = %34
  store i8 1, ptr %9, align 1, !tbaa !11
  %36 = load i8, ptr %9, align 1, !tbaa !11, !range !13, !noundef !14
  %37 = trunc i8 %36 to i1
  %38 = zext i1 %37 to i8
  store i8 %38, ptr %9, align 1, !tbaa !11
  br label %39

39:                                               ; preds = %35
  br label %40

40:                                               ; preds = %39
  br label %41

41:                                               ; preds = %40
  store i32 -1, ptr %8, align 4, !tbaa !7
  br label %112

42:                                               ; No predecessors!
  br label %43

43:                                               ; preds = %42
  br label %44

44:                                               ; preds = %43
  br label %45

45:                                               ; preds = %44
  br label %46

46:                                               ; preds = %45, %24
  br label %47

47:                                               ; preds = %46, %16
  %48 = load i8, ptr @H5G_init_g, align 1, !tbaa !11, !range !13, !noundef !14
  %49 = trunc i8 %48 to i1
  br i1 %49, label %54, label %50

50:                                               ; preds = %47
  %51 = load i8, ptr @H5_libterm_g, align 1, !tbaa !11, !range !13, !noundef !14
  %52 = trunc i8 %51 to i1
  %53 = xor i1 %52, true
  br label %54

54:                                               ; preds = %50, %47
  %55 = phi i1 [ true, %47 ], [ %53, %50 ]
  %56 = xor i1 %55, true
  %57 = xor i1 %56, true
  %58 = zext i1 %57 to i32
  %59 = sext i32 %58 to i64
  %60 = call i64 @llvm.expect.i64(i64 %59, i64 1)
  %61 = icmp ne i64 %60, 0
  br i1 %61, label %62, label %113

62:                                               ; preds = %54
  %63 = load ptr, ptr %5, align 8, !tbaa !32
  %64 = load i8, ptr %63, align 1, !tbaa !34
  %65 = icmp ne i8 %64, 0
  br i1 %65, label %85, label %66

66:                                               ; preds = %62
  br label %67

67:                                               ; preds = %66
  br label %68

68:                                               ; preds = %67
  br label %69

69:                                               ; preds = %68
  %70 = load i64, ptr @H5E_SYM_g, align 8, !tbaa !15
  %71 = load i64, ptr @H5E_BADVALUE_g, align 8, !tbaa !15
  %72 = call i32 (ptr, ptr, i32, i64, i64, ptr, ...) @H5E_printf_stack(ptr noundef @.str, ptr noundef @__func__.H5G_loc_find, i32 noundef 417, i64 noundef %70, i64 noundef %71, ptr noundef @.str.28)
  br label %73

73:                                               ; preds = %69
  br label %74

74:                                               ; preds = %73
  store i8 1, ptr %9, align 1, !tbaa !11
  %75 = load i8, ptr %9, align 1, !tbaa !11, !range !13, !noundef !14
  %76 = trunc i8 %75 to i1
  %77 = zext i1 %76 to i8
  store i8 %77, ptr %9, align 1, !tbaa !11
  br label %78

78:                                               ; preds = %74
  br label %79

79:                                               ; preds = %78
  br label %80

80:                                               ; preds = %79
  store i32 -1, ptr %8, align 4, !tbaa !7
  br label %112

81:                                               ; No predecessors!
  br label %82

82:                                               ; preds = %81
  br label %83

83:                                               ; preds = %82
  br label %84

84:                                               ; preds = %83
  br label %85

85:                                               ; preds = %84, %62
  %86 = load ptr, ptr %6, align 8, !tbaa !9
  %87 = getelementptr inbounds nuw %struct.H5G_loc_fnd_t, ptr %7, i32 0, i32 0
  store ptr %86, ptr %87, align 8, !tbaa !35
  %88 = load ptr, ptr %4, align 8, !tbaa !9
  %89 = load ptr, ptr %5, align 8, !tbaa !32
  %90 = call i32 @H5G_traverse(ptr noundef %88, ptr noundef %89, i32 noundef 0, ptr noundef @H5G__loc_find_cb, ptr noundef %7)
  %91 = icmp slt i32 %90, 0
  br i1 %91, label %92, label %111

92:                                               ; preds = %85
  br label %93

93:                                               ; preds = %92
  br label %94

94:                                               ; preds = %93
  br label %95

95:                                               ; preds = %94
  %96 = load i64, ptr @H5E_SYM_g, align 8, !tbaa !15
  %97 = load i64, ptr @H5E_NOTFOUND_g, align 8, !tbaa !15
  %98 = call i32 (ptr, ptr, i32, i64, i64, ptr, ...) @H5E_printf_stack(ptr noundef @.str, ptr noundef @__func__.H5G_loc_find, i32 noundef 424, i64 noundef %96, i64 noundef %97, ptr noundef @.str.29)
  br label %99

99:                                               ; preds = %95
  br label %100

100:                                              ; preds = %99
  store i8 1, ptr %9, align 1, !tbaa !11
  %101 = load i8, ptr %9, align 1, !tbaa !11, !range !13, !noundef !14
  %102 = trunc i8 %101 to i1
  %103 = zext i1 %102 to i8
  store i8 %103, ptr %9, align 1, !tbaa !11
  br label %104

104:                                              ; preds = %100
  br label %105

105:                                              ; preds = %104
  br label %106

106:                                              ; preds = %105
  store i32 -1, ptr %8, align 4, !tbaa !7
  br label %112

107:                                              ; No predecessors!
  br label %108

108:                                              ; preds = %107
  br label %109

109:                                              ; preds = %108
  br label %110

110:                                              ; preds = %109
  br label %111

111:                                              ; preds = %110, %85
  br label %112

112:                                              ; preds = %111, %106, %80, %41
  br label %113

113:                                              ; preds = %112, %54
  %114 = load i32, ptr %8, align 4, !tbaa !7
  call void @llvm.lifetime.end.p0(i64 1, ptr %9) #7
  call void @llvm.lifetime.end.p0(i64 4, ptr %8) #7
  call void @llvm.lifetime.end.p0(i64 8, ptr %7) #7
  ret i32 %114
}