; Function Attrs: nounwind uwtable
define range(i32 -1, 1) i32 @H5G_loc_find(ptr noundef %0, ptr noundef %1, ptr noundef %2) local_unnamed_addr #0 {
  %4 = alloca %struct.H5G_loc_fnd_t, align 8
  call void @llvm.lifetime.start.p0(i64 8, ptr nonnull %4) #9
  %5 = load i8, ptr @H5G_init_g, align 1, !tbaa !3, !range !7, !noundef !8
  %6 = trunc nuw i8 %5 to i1
  %7 = load i8, ptr @H5_libterm_g, align 1, !range !7
  %8 = trunc nuw i8 %7 to i1
  %9 = select i1 %6, i1 true, i1 %8
  br i1 %9, label %17, label %10, !prof !9

10:                                               ; preds = %3
  store i8 1, ptr @H5G_init_g, align 1, !tbaa !3
  %11 = tail call i32 @H5G__init_package() #9
  %12 = icmp slt i32 %11, 0
  br i1 %12, label %13, label %._crit_edge

._crit_edge:                                      ; preds = %10
  %.pre = load i8, ptr @H5G_init_g, align 1, !tbaa !3, !range !7
  %.pre7 = load i8, ptr @H5_libterm_g, align 1, !range !7
  %.pre8 = trunc nuw i8 %.pre to i1
  %.pre9 = trunc nuw i8 %.pre7 to i1
  br label %17

13:                                               ; preds = %10
  store i8 0, ptr @H5G_init_g, align 1, !tbaa !3
  %14 = load i64, ptr @H5E_FUNC_g, align 8, !tbaa !10
  %15 = load i64, ptr @H5E_CANTINIT_g, align 8, !tbaa !10
  %16 = tail call i32 (ptr, ptr, i32, i64, i64, ptr, ...) @H5E_printf_stack(ptr noundef nonnull @.str, ptr noundef nonnull @__func__.H5G_loc_find, i32 noundef 409, i64 noundef %14, i64 noundef %15, ptr noundef nonnull @.str.1) #9
  br label %33

17:                                               ; preds = %._crit_edge, %3
  %.pre-phi10 = phi i1 [ %.pre9, %._crit_edge ], [ %8, %3 ]
  %.pre-phi = phi i1 [ %.pre8, %._crit_edge ], [ %6, %3 ]
  %18 = xor i1 %.pre-phi10, true
  %19 = select i1 %.pre-phi, i1 true, i1 %18
  br i1 %19, label %20, label %33, !prof !9

20:                                               ; preds = %17
  %21 = load i8, ptr %1, align 1, !tbaa !18
  %.not = icmp eq i8 %21, 0
  br i1 %.not, label %22, label %26

22:                                               ; preds = %20
  %23 = load i64, ptr @H5E_SYM_g, align 8, !tbaa !10
  %24 = load i64, ptr @H5E_BADVALUE_g, align 8, !tbaa !10
  %25 = tail call i32 (ptr, ptr, i32, i64, i64, ptr, ...) @H5E_printf_stack(ptr noundef nonnull @.str, ptr noundef nonnull @__func__.H5G_loc_find, i32 noundef 417, i64 noundef %23, i64 noundef %24, ptr noundef nonnull @.str.28) #9
  br label %33

26:                                               ; preds = %20
  store ptr %2, ptr %4, align 8, !tbaa !19
  %27 = call i32 @H5G_traverse(ptr noundef %0, ptr noundef nonnull %1, i32 noundef 0, ptr noundef nonnull @H5G__loc_find_cb, ptr noundef nonnull %4) #9
  %28 = icmp slt i32 %27, 0
  br i1 %28, label %29, label %33

29:                                               ; preds = %26
  %30 = load i64, ptr @H5E_SYM_g, align 8, !tbaa !10
  %31 = load i64, ptr @H5E_NOTFOUND_g, align 8, !tbaa !10
  %32 = call i32 (ptr, ptr, i32, i64, i64, ptr, ...) @H5E_printf_stack(ptr noundef nonnull @.str, ptr noundef nonnull @__func__.H5G_loc_find, i32 noundef 424, i64 noundef %30, i64 noundef %31, ptr noundef nonnull @.str.29) #9
  br label %33

33:                                               ; preds = %13, %22, %29, %26, %17
  %.0 = phi i32 [ -1, %13 ], [ -1, %29 ], [ 0, %26 ], [ -1, %22 ], [ 0, %17 ]
  call void @llvm.lifetime.end.p0(i64 8, ptr nonnull %4) #9
  ret i32 %.0
}